; Function Attrs: mustprogress uwtable
define void @_ZN2cv4gapi9LaplacianERKNS_4GMatEiiddi(ptr dead_on_unwind noalias writable sret(%"class.cv::GMat") align 8 %0, ptr nocapture noundef nonnull readonly align 8 dereferenceable(16) %1, i32 noundef %2, i32 noundef %3, double noundef %4, double noundef %5, i32 noundef %6) local_unnamed_addr #3 personality ptr @__gxx_personality_v0 {
  %8 = alloca %"class.cv::GMat", align 8
  %9 = load ptr, ptr %1, align 8
  store ptr %9, ptr %8, align 8
  %10 = getelementptr inbounds i8, ptr %8, i64 8
  %11 = getelementptr inbounds i8, ptr %1, i64 8
  %12 = load ptr, ptr %11, align 8
  store ptr %12, ptr %10, align 8
  %.not.i.i.i.i = icmp eq ptr %12, null
  br i1 %.not.i.i.i.i, label %_ZN2cv4GMatC2ERKS0_.exit, label %13

13:                                               ; preds = %7
  %14 = getelementptr inbounds i8, ptr %12, i64 8
  %15 = load i8, ptr @__libc_single_threaded, align 1
  %.not.i.i.i.i.i = icmp eq i8 %15, 0
  br i1 %.not.i.i.i.i.i, label %19, label %16

16:                                               ; preds = %13
  %17 = load i32, ptr %14, align 4
  %18 = add nsw i32 %17, 1
  store i32 %18, ptr %14, align 4
  br label %_ZN2cv4GMatC2ERKS0_.exit

19:                                               ; preds = %13
  %20 = atomicrmw volatile add ptr %14, i32 1 acq_rel, align 4
  br label %_ZN2cv4GMatC2ERKS0_.exit

_ZN2cv4GMatC2ERKS0_.exit:                         ; preds = %7, %16, %19
  invoke void @_ZN2cv11GKernelTypeINS_4gapi7imgproc10GLaplacianESt8functionIFNS_4GMatES5_iiddiEEE2onES5_iiddi(ptr dead_on_unwind writable sret(%"class.cv::GMat") align 8 %0, ptr noundef nonnull %8, i32 noundef %2, i32 noundef %3, double noundef %4, double noundef %5, i32 noundef %6)
          to label %21 unwind label %57

21:                                               ; preds = %_ZN2cv4GMatC2ERKS0_.exit
  %22 = load ptr, ptr %10, align 8
  %.not.i.i.i.i7 = icmp eq ptr %22, null
  br i1 %.not.i.i.i.i7, label %_ZN2cv4GMatD2Ev.exit, label %23

23:                                               ; preds = %21
  %24 = getelementptr inbounds i8, ptr %22, i64 8
  %25 = load atomic i64, ptr %24 acquire, align 8
  %26 = icmp eq i64 %25, 4294967297
  %27 = trunc i64 %25 to i32
  br i1 %26, label %28, label %33

28:                                               ; preds = %23
  store i32 0, ptr %24, align 8
  %29 = getelementptr inbounds i8, ptr %22, i64 12
  store i32 0, ptr %29, align 4
  %30 = load ptr, ptr %22, align 8
  %31 = getelementptr inbounds i8, ptr %30, i64 16
  %32 = load ptr, ptr %31, align 8
  call void %32(ptr noundef nonnull align 8 dereferenceable(16) %22) #18
  br label %_ZNSt16_Sp_counted_baseILN9__gnu_cxx12_Lock_policyE2EE24_M_release_last_use_coldEv.exit.sink.split.i.i.i.i.i

33:                                               ; preds = %23
  %34 = load i8, ptr @__libc_single_threaded, align 1
  %.not.i.i.i.i.i8 = icmp eq i8 %34, 0
  br i1 %.not.i.i.i.i.i8, label %37, label %35

35:                                               ; preds = %33
  %36 = add nsw i32 %27, -1
  store i32 %36, ptr %24, align 4
  br label %39

37:                                               ; preds = %33
  %38 = atomicrmw volatile add ptr %24, i32 -1 acq_rel, align 4
  br label %39

39:                                               ; preds = %37, %35
  %.0.i.i.i.i.i = phi i32 [ %27, %35 ], [ %38, %37 ]
  %40 = icmp eq i32 %.0.i.i.i.i.i, 1
  br i1 %40, label %41, label %_ZN2cv4GMatD2Ev.exit

41:                                               ; preds = %39
  %42 = load ptr, ptr %22, align 8
  %43 = getelementptr inbounds i8, ptr %42, i64 16
  %44 = load ptr, ptr %43, align 8
  call void %44(ptr noundef nonnull align 8 dereferenceable(16) %22) #18
  %45 = getelementptr inbounds i8, ptr %22, i64 12
  %46 = load i8, ptr @__libc_single_threaded, align 1
  %.not.i.i.i.i.i.i.i = icmp eq i8 %46, 0
  br i1 %.not.i.i.i.i.i.i.i, label %50, label %47

47:                                               ; preds = %41
  %48 = load i32, ptr %45, align 4
  %49 = add nsw i32 %48, -1
  store i32 %49, ptr %45, align 4
  br label %52

50:                                               ; preds = %41
  %51 = atomicrmw volatile add ptr %45, i32 -1 acq_rel, align 4
  br label %52

52:                                               ; preds = %50, %47
  %.0.i.i.i.i.i.i.i = phi i32 [ %48, %47 ], [ %51, %50 ]
  %53 = icmp eq i32 %.0.i.i.i.i.i.i.i, 1
  br i1 %53, label %_ZNSt16_Sp_counted_baseILN9__gnu_cxx12_Lock_policyE2EE24_M_release_last_use_coldEv.exit.sink.split.i.i.i.i.i, label %_ZN2cv4GMatD2Ev.exit

_ZNSt16_Sp_counted_baseILN9__gnu_cxx12_Lock_policyE2EE24_M_release_last_use_coldEv.exit.sink.split.i.i.i.i.i: ; preds = %52, %28
  %54 = load ptr, ptr %22, align 8
  %55 = getelementptr inbounds i8, ptr %54, i64 24
  %56 = load ptr, ptr %55, align 8
  call void %56(ptr noundef nonnull align 8 dereferenceable(16) %22) #18
  br label %_ZN2cv4GMatD2Ev.exit

_ZN2cv4GMatD2Ev.exit:                             ; preds = %21, %39, %52, %_ZNSt16_Sp_counted_baseILN9__gnu_cxx12_Lock_policyE2EE24_M_release_last_use_coldEv.exit.sink.split.i.i.i.i.i
  ret void

57:                                               ; preds = %_ZN2cv4GMatC2ERKS0_.exit
  %58 = landingpad { ptr, i32 }
          cleanup
  call void @_ZN2cv4GMatD2Ev(ptr noundef nonnull align 8 dereferenceable(16) %8) #18
  resume { ptr, i32 } %58
}